; ModuleID = '32/1526.c'
source_filename = "32/1526.c"
target datalayout = "e-m:e-p270:32:32-p271:32:32-p272:64:64-i64:64-f80:128-n8:16:32:64-S128"
target triple = "x86_64-pc-linux-gnu"

@.str = private unnamed_addr constant [3 x i8] c"%d\00", align 1
@.str.1 = private unnamed_addr constant [6 x i8] c"%s %s\00", align 1
@.str.2 = private unnamed_addr constant [2 x i8] c"\0A\00", align 1
@.str.3 = private unnamed_addr constant [3 x i8] c"%c\00", align 1

; Function Attrs: noinline nounwind uwtable
define dso_local void @main() #0 {
  %1 = alloca i32, align 4
  %2 = alloca i32, align 4
  %3 = alloca [2 x i32], align 4
  %4 = alloca i32, align 4
  %5 = alloca [100 x [100 x i8]], align 16
  %6 = alloca [100 x [100 x i8]], align 16
  %7 = call i32 (i8*, ...) @__isoc99_scanf(i8* getelementptr inbounds ([3 x i8], [3 x i8]* @.str, i64 0, i64 0), i32* %1)
  store i32 0, i32* %2, align 4
  br label %8

8:                                                ; preds = %30, %0
  %9 = load i32, i32* %2, align 4
  %10 = load i32, i32* %1, align 4
  %11 = icmp slt i32 %9, %10
  br i1 %11, label %12, label %33

12:                                               ; preds = %8
  %13 = load i32, i32* %2, align 4
  %14 = sext i32 %13 to i64
  %15 = getelementptr inbounds [100 x [100 x i8]], [100 x [100 x i8]]* %5, i64 0, i64 %14
  %16 = getelementptr inbounds [100 x i8], [100 x i8]* %15, i64 0, i64 0
  %17 = load i32, i32* %2, align 4
  %18 = sext i32 %17 to i64
  %19 = getelementptr inbounds [100 x [100 x i8]], [100 x [100 x i8]]* %6, i64 0, i64 %18
  %20 = getelementptr inbounds [100 x i8], [100 x i8]* %19, i64 0, i64 0
  %21 = call i32 (i8*, ...) @__isoc99_scanf(i8* getelementptr inbounds ([6 x i8], [6 x i8]* @.str.1, i64 0, i64 0), i8* %16, i8* %20)
  %22 = load i32, i32* %2, align 4
  %23 = load i32, i32* %1, align 4
  %24 = sub nsw i32 %22, %23
  %25 = add nsw i32 %24, 1
  %26 = icmp ne i32 %25, 0
  br i1 %26, label %27, label %29

27:                                               ; preds = %12
  %28 = call i32 (i8*, ...) @printf(i8* getelementptr inbounds ([2 x i8], [2 x i8]* @.str.2, i64 0, i64 0))
  br label %29

29:                                               ; preds = %27, %12
  br label %30

30:                                               ; preds = %29
  %31 = load i32, i32* %2, align 4
  %32 = add nsw i32 %31, 1
  store i32 %32, i32* %2, align 4
  br label %8

33:                                               ; preds = %8
  store i32 0, i32* %2, align 4
  br label %34

34:                                               ; preds = %204, %33
  %35 = load i32, i32* %2, align 4
  %36 = load i32, i32* %1, align 4
  %37 = icmp slt i32 %35, %36
  br i1 %37, label %38, label %207

38:                                               ; preds = %34
  %39 = load i32, i32* %2, align 4
  %40 = sext i32 %39 to i64
  %41 = getelementptr inbounds [100 x [100 x i8]], [100 x [100 x i8]]* %5, i64 0, i64 %40
  %42 = getelementptr inbounds [100 x i8], [100 x i8]* %41, i64 0, i64 0
  %43 = call i64 @strlen(i8* %42) #3
  %44 = trunc i64 %43 to i32
  %45 = getelementptr inbounds [2 x i32], [2 x i32]* %3, i64 0, i64 0
  store i32 %44, i32* %45, align 4
  %46 = load i32, i32* %2, align 4
  %47 = sext i32 %46 to i64
  %48 = getelementptr inbounds [100 x [100 x i8]], [100 x [100 x i8]]* %6, i64 0, i64 %47
  %49 = getelementptr inbounds [100 x i8], [100 x i8]* %48, i64 0, i64 0
  %50 = call i64 @strlen(i8* %49) #3
  %51 = trunc i64 %50 to i32
  %52 = getelementptr inbounds [2 x i32], [2 x i32]* %3, i64 0, i64 1
  store i32 %51, i32* %52, align 4
  store i32 1, i32* %4, align 4
  br label %53

53:                                               ; preds = %145, %38
  %54 = load i32, i32* %4, align 4
  %55 = getelementptr inbounds [2 x i32], [2 x i32]* %3, i64 0, i64 1
  %56 = load i32, i32* %55, align 4
  %57 = add nsw i32 %56, 1
  %58 = icmp slt i32 %54, %57
  br i1 %58, label %59, label %148

59:                                               ; preds = %53
  %60 = load i32, i32* %2, align 4
  %61 = sext i32 %60 to i64
  %62 = getelementptr inbounds [100 x [100 x i8]], [100 x [100 x i8]]* %5, i64 0, i64 %61
  %63 = getelementptr inbounds [2 x i32], [2 x i32]* %3, i64 0, i64 0
  %64 = load i32, i32* %63, align 4
  %65 = load i32, i32* %4, align 4
  %66 = sub nsw i32 %64, %65
  %67 = sext i32 %66 to i64
  %68 = getelementptr inbounds [100 x i8], [100 x i8]* %62, i64 0, i64 %67
  %69 = load i8, i8* %68, align 1
  %70 = sext i8 %69 to i32
  %71 = add nsw i32 48, %70
  %72 = load i32, i32* %2, align 4
  %73 = sext i32 %72 to i64
  %74 = getelementptr inbounds [100 x [100 x i8]], [100 x [100 x i8]]* %6, i64 0, i64 %73
  %75 = getelementptr inbounds [2 x i32], [2 x i32]* %3, i64 0, i64 1
  %76 = load i32, i32* %75, align 4
  %77 = load i32, i32* %4, align 4
  %78 = sub nsw i32 %76, %77
  %79 = sext i32 %78 to i64
  %80 = getelementptr inbounds [100 x i8], [100 x i8]* %74, i64 0, i64 %79
  %81 = load i8, i8* %80, align 1
  %82 = sext i8 %81 to i32
  %83 = sub nsw i32 %71, %82
  %84 = trunc i32 %83 to i8
  %85 = load i32, i32* %2, align 4
  %86 = sext i32 %85 to i64
  %87 = getelementptr inbounds [100 x [100 x i8]], [100 x [100 x i8]]* %5, i64 0, i64 %86
  %88 = getelementptr inbounds [2 x i32], [2 x i32]* %3, i64 0, i64 0
  %89 = load i32, i32* %88, align 4
  %90 = load i32, i32* %4, align 4
  %91 = sub nsw i32 %89, %90
  %92 = sext i32 %91 to i64
  %93 = getelementptr inbounds [100 x i8], [100 x i8]* %87, i64 0, i64 %92
  store i8 %84, i8* %93, align 1
  %94 = load i32, i32* %2, align 4
  %95 = sext i32 %94 to i64
  %96 = getelementptr inbounds [100 x [100 x i8]], [100 x [100 x i8]]* %5, i64 0, i64 %95
  %97 = getelementptr inbounds [2 x i32], [2 x i32]* %3, i64 0, i64 0
  %98 = load i32, i32* %97, align 4
  %99 = load i32, i32* %4, align 4
  %100 = sub nsw i32 %98, %99
  %101 = sext i32 %100 to i64
  %102 = getelementptr inbounds [100 x i8], [100 x i8]* %96, i64 0, i64 %101
  %103 = load i8, i8* %102, align 1
  %104 = sext i8 %103 to i32
  %105 = icmp slt i32 %104, 48
  br i1 %105, label %106, label %144

106:                                              ; preds = %59
  %107 = load i32, i32* %2, align 4
  %108 = sext i32 %107 to i64
  %109 = getelementptr inbounds [100 x [100 x i8]], [100 x [100 x i8]]* %5, i64 0, i64 %108
  %110 = getelementptr inbounds [2 x i32], [2 x i32]* %3, i64 0, i64 0
  %111 = load i32, i32* %110, align 4
  %112 = load i32, i32* %4, align 4
  %113 = sub nsw i32 %111, %112
  %114 = sext i32 %113 to i64
  %115 = getelementptr inbounds [100 x i8], [100 x i8]* %109, i64 0, i64 %114
  %116 = load i8, i8* %115, align 1
  %117 = sext i8 %116 to i32
  %118 = add nsw i32 %117, 10
  %119 = trunc i32 %118 to i8
  store i8 %119, i8* %115, align 1
  %120 = load i32, i32* %2, align 4
  %121 = sext i32 %120 to i64
  %122 = getelementptr inbounds [100 x [100 x i8]], [100 x [100 x i8]]* %5, i64 0, i64 %121
  %123 = getelementptr inbounds [2 x i32], [2 x i32]* %3, i64 0, i64 0
  %124 = load i32, i32* %123, align 4
  %125 = load i32, i32* %4, align 4
  %126 = sub nsw i32 %124, %125
  %127 = sub nsw i32 %126, 1
  %128 = sext i32 %127 to i64
  %129 = getelementptr inbounds [100 x i8], [100 x i8]* %122, i64 0, i64 %128
  %130 = load i8, i8* %129, align 1
  %131 = sext i8 %130 to i32
  %132 = sub nsw i32 %131, 1
  %133 = trunc i32 %132 to i8
  %134 = load i32, i32* %2, align 4
  %135 = sext i32 %134 to i64
  %136 = getelementptr inbounds [100 x [100 x i8]], [100 x [100 x i8]]* %5, i64 0, i64 %135
  %137 = getelementptr inbounds [2 x i32], [2 x i32]* %3, i64 0, i64 0
  %138 = load i32, i32* %137, align 4
  %139 = load i32, i32* %4, align 4
  %140 = sub nsw i32 %138, %139
  %141 = sub nsw i32 %140, 1
  %142 = sext i32 %141 to i64
  %143 = getelementptr inbounds [100 x i8], [100 x i8]* %136, i64 0, i64 %142
  store i8 %133, i8* %143, align 1
  br label %144

144:                                              ; preds = %106, %59
  br label %145

145:                                              ; preds = %144
  %146 = load i32, i32* %4, align 4
  %147 = add nsw i32 %146, 1
  store i32 %147, i32* %4, align 4
  br label %53

148:                                              ; preds = %53
  store i32 0, i32* %4, align 4
  br label %149

149:                                              ; preds = %199, %148
  %150 = load i32, i32* %4, align 4
  %151 = sext i32 %150 to i64
  %152 = load i32, i32* %2, align 4
  %153 = sext i32 %152 to i64
  %154 = getelementptr inbounds [100 x [100 x i8]], [100 x [100 x i8]]* %5, i64 0, i64 %153
  %155 = getelementptr inbounds [100 x i8], [100 x i8]* %154, i64 0, i64 0
  %156 = call i64 @strlen(i8* %155) #3
  %157 = icmp ult i64 %151, %156
  br i1 %157, label %158, label %202

158:                                              ; preds = %149
  %159 = load i32, i32* %2, align 4
  %160 = sext i32 %159 to i64
  %161 = getelementptr inbounds [100 x [100 x i8]], [100 x [100 x i8]]* %5, i64 0, i64 %160
  %162 = getelementptr inbounds [100 x i8], [100 x i8]* %161, i64 0, i64 0
  %163 = load i8, i8* %162, align 4
  %164 = sext i8 %163 to i32
  %165 = icmp ne i32 %164, 48
  br i1 %165, label %166, label %176

166:                                              ; preds = %158
  %167 = load i32, i32* %2, align 4
  %168 = sext i32 %167 to i64
  %169 = getelementptr inbounds [100 x [100 x i8]], [100 x [100 x i8]]* %5, i64 0, i64 %168
  %170 = load i32, i32* %4, align 4
  %171 = sext i32 %170 to i64
  %172 = getelementptr inbounds [100 x i8], [100 x i8]* %169, i64 0, i64 %171
  %173 = load i8, i8* %172, align 1
  %174 = sext i8 %173 to i32
  %175 = call i32 (i8*, ...) @printf(i8* getelementptr inbounds ([3 x i8], [3 x i8]* @.str.3, i64 0, i64 0), i32 %174)
  br label %198

176:                                              ; preds = %158
  %177 = load i32, i32* %2, align 4
  %178 = sext i32 %177 to i64
  %179 = getelementptr inbounds [100 x [100 x i8]], [100 x [100 x i8]]* %5, i64 0, i64 %178
  %180 = load i32, i32* %4, align 4
  %181 = add nsw i32 %180, 1
  %182 = sext i32 %181 to i64
  %183 = getelementptr inbounds [100 x i8], [100 x i8]* %179, i64 0, i64 %182
  %184 = load i8, i8* %183, align 1
  %185 = sext i8 %184 to i32
  %186 = call i32 (i8*, ...) @printf(i8* getelementptr inbounds ([3 x i8], [3 x i8]* @.str.3, i64 0, i64 0), i32 %185)
  %187 = load i32, i32* %4, align 4
  %188 = sext i32 %187 to i64
  %189 = load i32, i32* %2, align 4
  %190 = sext i32 %189 to i64
  %191 = getelementptr inbounds [100 x [100 x i8]], [100 x [100 x i8]]* %5, i64 0, i64 %190
  %192 = getelementptr inbounds [100 x i8], [100 x i8]* %191, i64 0, i64 0
  %193 = call i64 @strlen(i8* %192) #3
  %194 = sub i64 %193, 2
  %195 = icmp eq i64 %188, %194
  br i1 %195, label %196, label %197

196:                                              ; preds = %176
  br label %202

197:                                              ; preds = %176
  br label %198

198:                                              ; preds = %197, %166
  br label %199

199:                                              ; preds = %198
  %200 = load i32, i32* %4, align 4
  %201 = add nsw i32 %200, 1
  store i32 %201, i32* %4, align 4
  br label %149

202:                                              ; preds = %196, %149
  %203 = call i32 (i8*, ...) @printf(i8* getelementptr inbounds ([2 x i8], [2 x i8]* @.str.2, i64 0, i64 0))
  br label %204

204:                                              ; preds = %202
  %205 = load i32, i32* %2, align 4
  %206 = add nsw i32 %205, 1
  store i32 %206, i32* %2, align 4
  br label %34

207:                                              ; preds = %34
  ret void
}

declare dso_local i32 @__isoc99_scanf(i8*, ...) #1

declare dso_local i32 @printf(i8*, ...) #1

; Function Attrs: nounwind readonly
declare dso_local i64 @strlen(i8*) #2


!llvm.module.flags = !{!0}
!llvm.ident = !{!1}

!0 = !{i32 1, !"wchar_size", i32 4}
!1 = !{!"clang version 10.0.0-4ubuntu1 "}
